; Function Attrs: mustprogress nofree norecurse nosync nounwind willreturn memory(argmem: readwrite) uwtable
define { double, double } @_ZNK32pxrInternal_v0_24__pxrReserved__8GfLine2d16FindClosestPointERKNS_7GfVec2dEPd(ptr nocapture noundef nonnull readonly align 8 dereferenceable(32) %0, ptr nocapture noundef nonnull readonly align 8 dereferenceable(16) %1, ptr noundef writeonly %2) local_unnamed_addr #1 align 2 {
  %.sroa.0.0.copyload2.i = load double, ptr %1, align 8
  %.sroa.4.0..sroa_idx.i = getelementptr inbounds i8, ptr %1, i64 8
  %.sroa.4.0.copyload.i = load double, ptr %.sroa.4.0..sroa_idx.i, align 8
  %4 = load double, ptr %0, align 8
  %5 = fsub double %.sroa.0.0.copyload2.i, %4
  %6 = getelementptr inbounds i8, ptr %0, i64 8
  %7 = load double, ptr %6, align 8
  %8 = fsub double %.sroa.4.0.copyload.i, %7
  %9 = getelementptr inbounds nuw i8, ptr %0, i64 16
  %10 = load double, ptr %9, align 8
  %11 = getelementptr inbounds i8, ptr %0, i64 24
  %12 = load double, ptr %11, align 8
  %13 = fmul double %8, %12
  %14 = tail call noundef double @llvm.fmuladd.f64(double %5, double %10, double %13)
  %.not = icmp eq ptr %2, null
  br i1 %.not, label %16, label %15

15:                                               ; preds = %3
  store double %14, ptr %2, align 8
  %.sroa.0.0.copyload2.i.i.pre = load double, ptr %9, align 8
  %.sroa.4.0.copyload.i.i.pre = load double, ptr %11, align 8
  %.sroa.0.0.copyload2.i2.i.pre = load double, ptr %0, align 8
  %.sroa.4.0.copyload.i4.i.pre = load double, ptr %6, align 8
  br label %16

16:                                               ; preds = %15, %3
  %.sroa.4.0.copyload.i4.i = phi double [ %.sroa.4.0.copyload.i4.i.pre, %15 ], [ %7, %3 ]
  %.sroa.0.0.copyload2.i2.i = phi double [ %.sroa.0.0.copyload2.i2.i.pre, %15 ], [ %4, %3 ]
  %.sroa.4.0.copyload.i.i = phi double [ %.sroa.4.0.copyload.i.i.pre, %15 ], [ %12, %3 ]
  %.sroa.0.0.copyload2.i.i = phi double [ %.sroa.0.0.copyload2.i.i.pre, %15 ], [ %10, %3 ]
  %17 = fmul double %14, %.sroa.0.0.copyload2.i.i
  %18 = fmul double %14, %.sroa.4.0.copyload.i.i
  %19 = fadd double %17, %.sroa.0.0.copyload2.i2.i
  %20 = fadd double %18, %.sroa.4.0.copyload.i4.i
  %.fca.0.insert.i5.i = insertvalue { double, double } poison, double %19, 0
  %.fca.1.insert.i6.i = insertvalue { double, double } %.fca.0.insert.i5.i, double %20, 1
  ret { double, double } %.fca.1.insert.i6.i
}